target datalayout = "e-m:e-p270:32:32-p271:32:32-p272:64:64-i64:64-i128:128-f80:128-n8:16:32:64-S128"
target triple = "x86_64-pc-linux-gnu"

%struct.lua_TValue = type { %union.Value, [1 x i32], i32 }
%union.Value = type { ptr }
%struct.lua_State = type { i8, i8, i8, i8, i8, i8, i8, ptr, ptr, ptr, ptr, ptr, ptr, ptr, ptr, i32, i32, i16, i16, i32, ptr, ptr, ptr, ptr, ptr }
%struct.global_State = type { %struct.stringtable, ptr, ptr, i8, i8, ptr, ptr, ptr, i64, i64, i32, i32, i32, [40 x ptr], [40 x ptr], ptr, ptr, ptr, [256 x i64], ptr, %struct.UpVal, [11 x ptr], [11 x ptr], [21 x ptr], %struct.lua_TValue, %struct.lua_TValue, i32, ptr, i64, [4 x i64], %struct.lua_Callbacks, %struct.lua_ExecutionCallbacks, [128 x ptr], [128 x ptr], [128 x ptr], %struct.GCStats }
%struct.stringtable = type { ptr, i32, i32 }
%struct.UpVal = type { i8, i8, i8, i8, ptr, %union.anon }
%union.anon = type { %struct.anon }
%struct.anon = type { ptr, ptr, ptr }
%struct.lua_Callbacks = type { ptr, ptr, ptr, ptr, ptr, ptr, ptr, ptr, ptr, ptr }
%struct.lua_ExecutionCallbacks = type { ptr, ptr, ptr, ptr, ptr, ptr, ptr }
%struct.GCStats = type { [32 x i32], i32, i32, i64, i64, i64, double, double, double }
%struct.EnumContext = type { ptr, ptr, ptr, ptr }

; Function Attrs: mustprogress uwtable
define hidden void @_Z13luaC_enumheapP9lua_StatePvPFvS1_S1_hhmPKcEPFvS1_S1_S1_S3_E(ptr noundef %0, ptr noundef %1, ptr noundef %2, ptr noundef %3) #0 {
  %5 = alloca ptr, align 8
  %6 = alloca ptr, align 8
  %7 = alloca ptr, align 8
  %8 = alloca ptr, align 8
  %9 = alloca ptr, align 8
  %10 = alloca %struct.EnumContext, align 8
  store ptr %0, ptr %5, align 8, !tbaa !4
  store ptr %1, ptr %6, align 8, !tbaa !61
  store ptr %2, ptr %7, align 8, !tbaa !61
  store ptr %3, ptr %8, align 8, !tbaa !61
  call void @llvm.lifetime.start.p0(i64 8, ptr %9) #9
  %11 = load ptr, ptr %5, align 8, !tbaa !4
  %12 = getelementptr inbounds nuw %struct.lua_State, ptr %11, i32 0, i32 9
  %13 = load ptr, ptr %12, align 8, !tbaa !9
  store ptr %13, ptr %9, align 8, !tbaa !21
  call void @llvm.lifetime.start.p0(i64 32, ptr %10) #9
  %14 = load ptr, ptr %5, align 8, !tbaa !4
  %15 = getelementptr inbounds nuw %struct.EnumContext, ptr %10, i32 0, i32 0
  store ptr %14, ptr %15, align 8, !tbaa !68
  %16 = load ptr, ptr %6, align 8, !tbaa !61
  %17 = getelementptr inbounds nuw %struct.EnumContext, ptr %10, i32 0, i32 1
  store ptr %16, ptr %17, align 8, !tbaa !70
  %18 = load ptr, ptr %7, align 8, !tbaa !61
  %19 = getelementptr inbounds nuw %struct.EnumContext, ptr %10, i32 0, i32 2
  store ptr %18, ptr %19, align 8, !tbaa !71
  %20 = load ptr, ptr %8, align 8, !tbaa !61
  %21 = getelementptr inbounds nuw %struct.EnumContext, ptr %10, i32 0, i32 3
  store ptr %20, ptr %21, align 8, !tbaa !72
  %22 = load ptr, ptr %9, align 8, !tbaa !21
  %23 = getelementptr inbounds nuw %struct.global_State, ptr %22, i32 0, i32 19
  %24 = load ptr, ptr %23, align 8, !tbaa !42
  %25 = getelementptr inbounds %struct.lua_State, ptr %24, i64 0
  %26 = call noundef zeroext i1 @_ZL7enumgcoPvP8lua_PageP8GCObject(ptr noundef %10, ptr noundef null, ptr noundef %25)
  %27 = load ptr, ptr %5, align 8, !tbaa !4
  call void @_Z13luaM_visitgcoP9lua_StatePvPFbS1_P8lua_PageP8GCObjectE(ptr noundef %27, ptr noundef %10, ptr noundef @_ZL7enumgcoPvP8lua_PageP8GCObject)
  call void @llvm.lifetime.end.p0(i64 32, ptr %10) #9
  call void @llvm.lifetime.end.p0(i64 8, ptr %9) #9
  ret void
}