; Function Attrs: mustprogress uwtable
define hidden void @_Z13luaC_enumheapP9lua_StatePvPFvS1_S1_hhmPKcEPFvS1_S1_S1_S3_E(ptr noundef %0, ptr noundef %1, ptr noundef %2, ptr noundef %3) local_unnamed_addr #0 {
  %5 = alloca %struct.EnumContext, align 8
  %6 = getelementptr inbounds nuw i8, ptr %0, i64 24
  %7 = load ptr, ptr %6, align 8, !tbaa !4
  call void @llvm.lifetime.start.p0(i64 32, ptr nonnull %5) #8
  store ptr %0, ptr %5, align 8, !tbaa !112
  %8 = getelementptr inbounds nuw i8, ptr %5, i64 8
  store ptr %1, ptr %8, align 8, !tbaa !114
  %9 = getelementptr inbounds nuw i8, ptr %5, i64 16
  store ptr %2, ptr %9, align 8, !tbaa !115
  %10 = getelementptr inbounds nuw i8, ptr %5, i64 24
  store ptr %3, ptr %10, align 8, !tbaa !116
  %11 = getelementptr inbounds nuw i8, ptr %7, i64 2808
  %12 = load ptr, ptr %11, align 8, !tbaa !19
  %13 = call noundef zeroext i1 @_ZL7enumgcoPvP8lua_PageP8GCObject(ptr noundef nonnull %5, ptr poison, ptr noundef %12)
  call void @_Z13luaM_visitgcoP9lua_StatePvPFbS1_P8lua_PageP8GCObjectE(ptr noundef %0, ptr noundef nonnull %5, ptr noundef nonnull @_ZL7enumgcoPvP8lua_PageP8GCObject)
  call void @llvm.lifetime.end.p0(i64 32, ptr nonnull %5) #8
  ret void
}